(lp0
I316
a.(lp0
I257
aI258
aI259
aI260
aI261
aI262
aI265
aI266
aI268
aI271
aI274
aI275
aI278
aI293
aI315
aI317
aI325
aI326
aI328
aI329
aI331
aI334
aI335
aI338
aI347
aI350
aI351
aI352
aI353
aI354
a.(lp0
I255
aI264
aI276
aI277
aI294
aI295
aI298
aI300
aI303
aI304
aI321
aI339
aI344
aI345
a.(lp0
I263
aI267
aI279
aI281
aI282
aI283
aI286
aI296
aI297
aI318
aI336
aI340
aI342
aI343
a.(lp0
I269
aI270
aI333
a.(lp0
I280
aI291
aI292
aI319
aI324
aI337
aI341
a.(lp0
I284
aI290
aI320
aI323
a.(lp0
I344
a.(lp0
I348
a.(lp0
I308
a.(lp0
I341
a.(lp0
I267
aI269
a.(lp0
I335
a.(lp0
I310
a.(lp0
I270
aI293
aI294
aI303
aI337
a.(lp0
I309
a.(lp0
I322
a.(lp0
I259
a.(lp0
I266
aI307
a.(lp0
I298
aI300
aI340
a.(lp0
I281
aI282
aI283
aI284
aI287
aI288
aI289
aI290
aI291
aI292
aI295
aI296
aI336
a.(lp0
I277
aI278
aI279
aI280
aI313
aI345
a.(lp0
I305
a.(lp0
I255
aI257
aI258
aI260
aI261
aI262
aI263
aI264
aI274
aI275
aI276
aI297
aI311
aI319
aI320
aI321
aI343
aI352
aI353
aI354
a.(lp0
I304
a.(lp0
I312
a.(lp0
I262
aI312
aI327
aI329
a.(lp0
I255
aI265
aI272
aI273
aI278
aI286
aI293
aI300
aI303
aI305
aI308
aI311
aI313
aI316
aI321
aI330
aI331
aI332
aI334
aI335
aI338
aI339
aI345
aI348
aI350
aI352
aI353
a.(lp0
I258
aI259
aI260
aI261
aI264
aI266
aI267
aI268
aI271
aI274
aI275
aI276
aI277
aI279
aI281
aI282
aI283
aI285
aI288
aI292
aI294
aI295
aI296
aI297
aI304
aI307
aI309
aI310
aI315
aI318
aI326
aI328
aI336
aI341
aI342
aI343
aI344
aI347
aI354
a.(lp0
I263
aI269
aI270
aI280
aI284
aI290
aI291
aI298
aI317
aI319
aI325
aI333
aI337
aI340
a.(lp0
I320
aI324
a.(lp0
I323
a.(lp0
I260
aI262
aI265
aI271
aI275
aI278
aI295
aI307
aI308
aI316
aI317
aI321
aI324
aI326
aI327
aI328
aI329
aI330
aI331
aI334
aI335
aI342
aI344
aI350
aI352
aI353
a.(lp0
I255
aI258
aI259
aI261
aI263
aI264
aI268
aI274
aI276
aI277
aI279
aI282
aI291
aI296
aI297
aI298
aI300
aI310
aI315
aI318
aI319
aI336
aI340
aI341
aI343
aI345
aI347
aI351
aI354
a.(lp0
I266
aI270
aI281
aI283
aI284
aI320
aI333
aI339
a.(lp0
I280
aI290
aI337
a.(lp0
I257
aI267
aI269
aI323
aI325
a.(lp0
I260
aI274
aI277
aI278
aI303
aI316
aI317
aI331
a.(lp0
I272
aI273
aI275
aI307
aI313
aI328
aI335
aI348
a.(lp0
I270
aI280
aI295
aI320
a.(lp0
I267
aI294
aI296
a.(lp0
I257
aI262
aI263
aI298
aI309
aI310
aI311
aI312
aI329
aI330
aI333
aI339
aI340
aI345
aI352
aI353
aI354
a.(lp0
I259
aI264
aI266
aI271
aI282
aI292
aI304
aI315
aI336
aI343
a.(lp0
I279
aI285
aI291
aI342
aI347
a.(lp0
I255
aI276
aI286
aI297
aI300
aI318
aI332
a.(lp0
I269
aI290
aI323
aI324
aI337
a.(lp0
I305
aI338
a.(lp0
I258
aI265
aI308
aI321
aI326
aI327
aI334
aI344
a.(lp0
I261
aI268
aI281
aI283
aI284
aI293
aI319
aI325
a.